target datalayout = "e-m:e-p270:32:32-p271:32:32-p272:64:64-i64:64-i128:128-f80:128-n8:16:32:64-S128"
target triple = "x86_64-pc-linux-gnu"

@hf_mpeg_descr_video_stream_multiple_frame_rate_flag = internal global i32 0, align 4
@hf_mpeg_descr_video_stream_frame_rate_code = internal global i32 0, align 4
@hf_mpeg_descr_video_stream_mpeg1_only_flag = internal global i32 0, align 4
@hf_mpeg_descr_video_stream_constrained_parameter_flag = internal global i32 0, align 4
@hf_mpeg_descr_video_stream_still_picture_flag = internal global i32 0, align 4
@hf_mpeg_descr_video_stream_profile_and_level_indication = internal global i32 0, align 4
@hf_mpeg_descr_video_stream_chroma_format = internal global i32 0, align 4
@hf_mpeg_descr_video_stream_frame_rate_extension_flag = internal global i32 0, align 4
@hf_mpeg_descr_video_stream_reserved = internal global i32 0, align 4

; Function Attrs: null_pointer_is_valid sspstrong uwtable
define internal void @proto_mpeg_descriptor_dissect_video_stream(ptr noundef %0, i32 noundef %1, ptr noundef %2) #1 {
  %4 = alloca ptr, align 8
  %5 = alloca i32, align 4
  %6 = alloca ptr, align 8
  %7 = alloca i8, align 1
  store ptr %0, ptr %4, align 8
  store i32 %1, ptr %5, align 4
  store ptr %2, ptr %6, align 8
  call void @llvm.lifetime.start.p0(i64 1, ptr %7) #4
  %8 = load ptr, ptr %4, align 8
  %9 = load i32, ptr %5, align 4
  %10 = call zeroext i8 @tvb_get_uint8(ptr noundef %8, i32 noundef %9)
  %11 = zext i8 %10 to i32
  %12 = and i32 %11, 4
  %13 = trunc i32 %12 to i8
  store i8 %13, ptr %7, align 1
  %14 = load ptr, ptr %6, align 8
  %15 = load i32, ptr @hf_mpeg_descr_video_stream_multiple_frame_rate_flag, align 4
  %16 = load ptr, ptr %4, align 8
  %17 = load i32, ptr %5, align 4
  %18 = call ptr @proto_tree_add_item(ptr noundef %14, i32 noundef %15, ptr noundef %16, i32 noundef %17, i32 noundef 1, i32 noundef 0)
  %19 = load ptr, ptr %6, align 8
  %20 = load i32, ptr @hf_mpeg_descr_video_stream_frame_rate_code, align 4
  %21 = load ptr, ptr %4, align 8
  %22 = load i32, ptr %5, align 4
  %23 = call ptr @proto_tree_add_item(ptr noundef %19, i32 noundef %20, ptr noundef %21, i32 noundef %22, i32 noundef 1, i32 noundef 0)
  %24 = load ptr, ptr %6, align 8
  %25 = load i32, ptr @hf_mpeg_descr_video_stream_mpeg1_only_flag, align 4
  %26 = load ptr, ptr %4, align 8
  %27 = load i32, ptr %5, align 4
  %28 = call ptr @proto_tree_add_item(ptr noundef %24, i32 noundef %25, ptr noundef %26, i32 noundef %27, i32 noundef 1, i32 noundef 0)
  %29 = load ptr, ptr %6, align 8
  %30 = load i32, ptr @hf_mpeg_descr_video_stream_constrained_parameter_flag, align 4
  %31 = load ptr, ptr %4, align 8
  %32 = load i32, ptr %5, align 4
  %33 = call ptr @proto_tree_add_item(ptr noundef %29, i32 noundef %30, ptr noundef %31, i32 noundef %32, i32 noundef 1, i32 noundef 0)
  %34 = load ptr, ptr %6, align 8
  %35 = load i32, ptr @hf_mpeg_descr_video_stream_still_picture_flag, align 4
  %36 = load ptr, ptr %4, align 8
  %37 = load i32, ptr %5, align 4
  %38 = call ptr @proto_tree_add_item(ptr noundef %34, i32 noundef %35, ptr noundef %36, i32 noundef %37, i32 noundef 1, i32 noundef 0)
  %39 = load i32, ptr %5, align 4
  %40 = add i32 %39, 1
  store i32 %40, ptr %5, align 4
  %41 = load i8, ptr %7, align 1
  %42 = zext i8 %41 to i32
  %43 = icmp eq i32 %42, 0
  br i1 %43, label %44, label %67

44:                                               ; preds = %3
  %45 = load ptr, ptr %6, align 8
  %46 = load i32, ptr @hf_mpeg_descr_video_stream_profile_and_level_indication, align 4
  %47 = load ptr, ptr %4, align 8
  %48 = load i32, ptr %5, align 4
  %49 = call ptr @proto_tree_add_item(ptr noundef %45, i32 noundef %46, ptr noundef %47, i32 noundef %48, i32 noundef 1, i32 noundef 0)
  %50 = load i32, ptr %5, align 4
  %51 = add i32 %50, 1
  store i32 %51, ptr %5, align 4
  %52 = load ptr, ptr %6, align 8
  %53 = load i32, ptr @hf_mpeg_descr_video_stream_chroma_format, align 4
  %54 = load ptr, ptr %4, align 8
  %55 = load i32, ptr %5, align 4
  %56 = call ptr @proto_tree_add_item(ptr noundef %52, i32 noundef %53, ptr noundef %54, i32 noundef %55, i32 noundef 1, i32 noundef 0)
  %57 = load ptr, ptr %6, align 8
  %58 = load i32, ptr @hf_mpeg_descr_video_stream_frame_rate_extension_flag, align 4
  %59 = load ptr, ptr %4, align 8
  %60 = load i32, ptr %5, align 4
  %61 = call ptr @proto_tree_add_item(ptr noundef %57, i32 noundef %58, ptr noundef %59, i32 noundef %60, i32 noundef 1, i32 noundef 0)
  %62 = load ptr, ptr %6, align 8
  %63 = load i32, ptr @hf_mpeg_descr_video_stream_reserved, align 4
  %64 = load ptr, ptr %4, align 8
  %65 = load i32, ptr %5, align 4
  %66 = call ptr @proto_tree_add_item(ptr noundef %62, i32 noundef %63, ptr noundef %64, i32 noundef %65, i32 noundef 1, i32 noundef 0)
  br label %67

67:                                               ; preds = %44, %3
  call void @llvm.lifetime.end.p0(i64 1, ptr %7) #4
  ret void
}