; Function Attrs: null_pointer_is_valid sspstrong uwtable
define internal fastcc void @proto_mpeg_descriptor_dissect_video_stream(ptr noundef %0, i32 noundef %1, ptr noundef %2) unnamed_addr #1 {
  %4 = tail call zeroext i8 @tvb_get_uint8(ptr noundef %0, i32 noundef %1)
  %5 = and i8 %4, 4
  %6 = load i32, ptr @hf_mpeg_descr_video_stream_multiple_frame_rate_flag, align 4
  %7 = tail call ptr @proto_tree_add_item(ptr noundef %2, i32 noundef %6, ptr noundef %0, i32 noundef %1, i32 noundef 1, i32 noundef 0)
  %8 = load i32, ptr @hf_mpeg_descr_video_stream_frame_rate_code, align 4
  %9 = tail call ptr @proto_tree_add_item(ptr noundef %2, i32 noundef %8, ptr noundef %0, i32 noundef %1, i32 noundef 1, i32 noundef 0)
  %10 = load i32, ptr @hf_mpeg_descr_video_stream_mpeg1_only_flag, align 4
  %11 = tail call ptr @proto_tree_add_item(ptr noundef %2, i32 noundef %10, ptr noundef %0, i32 noundef %1, i32 noundef 1, i32 noundef 0)
  %12 = load i32, ptr @hf_mpeg_descr_video_stream_constrained_parameter_flag, align 4
  %13 = tail call ptr @proto_tree_add_item(ptr noundef %2, i32 noundef %12, ptr noundef %0, i32 noundef %1, i32 noundef 1, i32 noundef 0)
  %14 = load i32, ptr @hf_mpeg_descr_video_stream_still_picture_flag, align 4
  %15 = tail call ptr @proto_tree_add_item(ptr noundef %2, i32 noundef %14, ptr noundef %0, i32 noundef %1, i32 noundef 1, i32 noundef 0)
  %16 = icmp eq i8 %5, 0
  br i1 %16, label %17, label %28

17:                                               ; preds = %3
  %18 = add i32 %1, 1
  %19 = load i32, ptr @hf_mpeg_descr_video_stream_profile_and_level_indication, align 4
  %20 = tail call ptr @proto_tree_add_item(ptr noundef %2, i32 noundef %19, ptr noundef %0, i32 noundef %18, i32 noundef 1, i32 noundef 0)
  %21 = add i32 %1, 2
  %22 = load i32, ptr @hf_mpeg_descr_video_stream_chroma_format, align 4
  %23 = tail call ptr @proto_tree_add_item(ptr noundef %2, i32 noundef %22, ptr noundef %0, i32 noundef %21, i32 noundef 1, i32 noundef 0)
  %24 = load i32, ptr @hf_mpeg_descr_video_stream_frame_rate_extension_flag, align 4
  %25 = tail call ptr @proto_tree_add_item(ptr noundef %2, i32 noundef %24, ptr noundef %0, i32 noundef %21, i32 noundef 1, i32 noundef 0)
  %26 = load i32, ptr @hf_mpeg_descr_video_stream_reserved, align 4
  %27 = tail call ptr @proto_tree_add_item(ptr noundef %2, i32 noundef %26, ptr noundef %0, i32 noundef %21, i32 noundef 1, i32 noundef 0)
  br label %28

28:                                               ; preds = %17, %3
  ret void
}